; Function Attrs: mustprogress nofree norecurse nosync nounwind willreturn memory(readwrite, inaccessiblemem: none) uwtable
define i32 @Gia_SweeperProbeDelete(ptr noundef readonly captures(none) %0, i32 noundef %1) local_unnamed_addr #9 {
  %3 = getelementptr inbounds nuw i8, ptr %0, i64 768
  %4 = load ptr, ptr %3, align 8, !tbaa !10
  %5 = getelementptr inbounds nuw i8, ptr %4, i64 16
  %6 = load ptr, ptr %5, align 8, !tbaa !35
  %7 = getelementptr i8, ptr %6, i64 8
  %.val5 = load ptr, ptr %7, align 8, !tbaa !34
  %8 = sext i32 %1 to i64
  %9 = getelementptr inbounds i32, ptr %.val5, i64 %8
  %10 = load i32, ptr %9, align 4, !tbaa !44
  store i32 -1, ptr %9, align 4, !tbaa !44
  ret i32 %10
}